; Function Attrs: nounwind uwtable
define dso_local i32 @opt_printf_stderr(ptr noundef %0, ...) local_unnamed_addr #0 {
  %2 = alloca [1 x %struct.__va_list_tag], align 16
  call void @llvm.lifetime.start.p0(i64 24, ptr nonnull %2) #7
  call void @llvm.va_start.p0(ptr nonnull %2)
  %3 = load ptr, ptr @bio_err, align 8, !tbaa !4
  %4 = call i32 @BIO_vprintf(ptr noundef %3, ptr noundef %0, ptr noundef nonnull %2) #7
  call void @llvm.va_end.p0(ptr nonnull %2)
  call void @llvm.lifetime.end.p0(i64 24, ptr nonnull %2) #7
  ret i32 %4
}